target datalayout = "e-m:e-p270:32:32-p271:32:32-p272:64:64-i64:64-i128:128-f80:128-n8:16:32:64-S128"
target triple = "x86_64-pc-linux-gnu"

%struct.RelationData = type { %struct.RelFileLocator, ptr, i32, i32, i8, i8, i8, i8, i8, i32, i32, i32, i32, ptr, ptr, i32, %struct.LockInfoData, ptr, ptr, ptr, ptr, ptr, i8, ptr, ptr, ptr, ptr, ptr, ptr, i32, ptr, i8, ptr, ptr, i32, i8, i32, ptr, i8, ptr, ptr, ptr, ptr, ptr, ptr, ptr, i32, ptr, ptr, ptr, ptr, ptr, ptr, ptr, ptr, ptr, ptr, ptr, ptr, ptr, ptr, ptr, ptr, ptr, ptr, ptr, i32, i8, ptr }
%struct.RelFileLocator = type { i32, i32, i32 }
%struct.LockInfoData = type { %struct.LockRelId }
%struct.LockRelId = type { i32, i32 }
%struct.TableAmRoutine = type { i32, ptr, ptr, ptr, ptr, ptr, ptr, ptr, ptr, ptr, ptr, ptr, ptr, ptr, ptr, ptr, ptr, ptr, ptr, ptr, ptr, ptr, ptr, ptr, ptr, ptr, ptr, ptr, ptr, ptr, ptr, ptr, ptr, ptr, ptr, ptr, ptr, ptr, ptr, ptr, ptr, ptr, ptr, ptr, ptr, ptr }
%struct.SysScanDescData = type { ptr, ptr, ptr, ptr, ptr, ptr }

@.str.4 = private unnamed_addr constant [8 x i8] c"genam.c\00", align 1
@CheckXidAlive = external global i32, align 4
@.str.13 = private unnamed_addr constant [47 x i8] c"transaction aborted during system catalog scan\00", align 1
@__func__.HandleConcurrentAbort = private unnamed_addr constant [22 x i8] c"HandleConcurrentAbort\00", align 1

; Function Attrs: inlinehint nounwind uwtable
define internal void @HandleConcurrentAbort() #3 {
  %1 = load i32, ptr @CheckXidAlive, align 4
  %2 = icmp ne i32 %1, 0
  br i1 %2, label %3, label %20

3:                                                ; preds = %0
  %4 = load i32, ptr @CheckXidAlive, align 4
  %5 = call zeroext i1 @TransactionIdIsInProgress(i32 noundef %4)
  br i1 %5, label %20, label %6

6:                                                ; preds = %3
  %7 = load i32, ptr @CheckXidAlive, align 4
  %8 = call zeroext i1 @TransactionIdDidCommit(i32 noundef %7)
  br i1 %8, label %20, label %9

9:                                                ; preds = %6
  br label %10

10:                                               ; preds = %9
  br i1 true, label %11, label %13

11:                                               ; preds = %10
  %12 = call zeroext i1 @errstart_cold(i32 noundef 21, ptr noundef null) #8
  br i1 %12, label %15, label %18

13:                                               ; preds = %10
  %14 = call zeroext i1 @errstart(i32 noundef 21, ptr noundef null)
  br i1 %14, label %15, label %18

15:                                               ; preds = %13, %11
  %16 = call i32 @errcode(i32 noundef 4)
  %17 = call i32 (ptr, ...) @errmsg(ptr noundef @.str.13)
  call void @errfinish(ptr noundef @.str.4, i32 noundef 497, ptr noundef @__func__.HandleConcurrentAbort)
  br label %18

18:                                               ; preds = %15, %13, %11
  unreachable

19:                                               ; No predecessors!
  br label %20

20:                                               ; preds = %19, %6, %3, %0
  ret void
}

; Function Attrs: inlinehint nounwind uwtable
define internal zeroext i1 @table_tuple_satisfies_snapshot(ptr noundef %0, ptr noundef %1, ptr noundef %2) #3 {
  %4 = alloca ptr, align 8
  %5 = alloca ptr, align 8
  %6 = alloca ptr, align 8
  store ptr %0, ptr %4, align 8
  store ptr %1, ptr %5, align 8
  store ptr %2, ptr %6, align 8
  %7 = load ptr, ptr %4, align 8
  %8 = getelementptr inbounds nuw %struct.RelationData, ptr %7, i32 0, i32 47
  %9 = load ptr, ptr %8, align 8
  %10 = getelementptr inbounds nuw %struct.TableAmRoutine, ptr %9, i32 0, i32 18
  %11 = load ptr, ptr %10, align 8
  %12 = load ptr, ptr %4, align 8
  %13 = load ptr, ptr %5, align 8
  %14 = load ptr, ptr %6, align 8
  %15 = call zeroext i1 %11(ptr noundef %12, ptr noundef %13, ptr noundef %14)
  ret i1 %15
}

; Function Attrs: nounwind uwtable
define dso_local zeroext i1 @systable_recheck_tuple(ptr noundef %0, ptr noundef %1) #0 {
  %3 = alloca ptr, align 8
  %4 = alloca ptr, align 8
  %5 = alloca ptr, align 8
  %6 = alloca i8, align 1
  store ptr %0, ptr %3, align 8
  store ptr %1, ptr %4, align 8
  call void @llvm.lifetime.start.p0(i64 8, ptr %5) #7
  call void @llvm.lifetime.start.p0(i64 1, ptr %6) #7
  %7 = load ptr, ptr %3, align 8
  %8 = getelementptr inbounds nuw %struct.SysScanDescData, ptr %7, i32 0, i32 0
  %9 = load ptr, ptr %8, align 8
  %10 = getelementptr inbounds nuw %struct.RelationData, ptr %9, i32 0, i32 15
  %11 = load i32, ptr %10, align 8
  %12 = call ptr @GetCatalogSnapshot(i32 noundef %11)
  store ptr %12, ptr %5, align 8
  %13 = load ptr, ptr %3, align 8
  %14 = getelementptr inbounds nuw %struct.SysScanDescData, ptr %13, i32 0, i32 0
  %15 = load ptr, ptr %14, align 8
  %16 = load ptr, ptr %3, align 8
  %17 = getelementptr inbounds nuw %struct.SysScanDescData, ptr %16, i32 0, i32 5
  %18 = load ptr, ptr %17, align 8
  %19 = load ptr, ptr %5, align 8
  %20 = call zeroext i1 @table_tuple_satisfies_snapshot(ptr noundef %15, ptr noundef %18, ptr noundef %19)
  %21 = zext i1 %20 to i8
  store i8 %21, ptr %6, align 1
  call void @HandleConcurrentAbort()
  %22 = load i8, ptr %6, align 1, !range !4, !noundef !5
  %23 = trunc i8 %22 to i1
  call void @llvm.lifetime.end.p0(i64 1, ptr %6) #7
  call void @llvm.lifetime.end.p0(i64 8, ptr %5) #7
  ret i1 %23
}