; Function Attrs: nounwind uwtable
define dso_local zeroext i1 @systable_recheck_tuple(ptr noundef readonly captures(none) %0, ptr noundef readnone captures(none) %1) local_unnamed_addr #0 {
  %3 = load ptr, ptr %0, align 8
  %4 = getelementptr inbounds nuw i8, ptr %3, i64 72
  %5 = load i32, ptr %4, align 8
  %6 = tail call ptr @GetCatalogSnapshot(i32 noundef %5) #7
  %7 = load ptr, ptr %0, align 8
  %8 = getelementptr inbounds nuw i8, ptr %0, i64 40
  %9 = load ptr, ptr %8, align 8
  %10 = getelementptr inbounds nuw i8, ptr %7, i64 320
  %11 = load ptr, ptr %10, align 8
  %12 = getelementptr inbounds nuw i8, ptr %11, i64 144
  %13 = load ptr, ptr %12, align 8
  %14 = tail call zeroext i1 %13(ptr noundef %7, ptr noundef %9, ptr noundef %6) #7
  %15 = load i32, ptr @CheckXidAlive, align 4
  %.not.i = icmp eq i32 %15, 0
  br i1 %.not.i, label %HandleConcurrentAbort.exit, label %16

16:                                               ; preds = %2
  %17 = tail call zeroext i1 @TransactionIdIsInProgress(i32 noundef %15) #7
  br i1 %17, label %HandleConcurrentAbort.exit, label %18

18:                                               ; preds = %16
  %19 = load i32, ptr @CheckXidAlive, align 4
  %20 = tail call zeroext i1 @TransactionIdDidCommit(i32 noundef %19) #7
  br i1 %20, label %HandleConcurrentAbort.exit, label %21

21:                                               ; preds = %18
  %22 = tail call zeroext i1 @errstart_cold(i32 noundef 21, ptr noundef null) #8
  tail call void @llvm.assume(i1 %22)
  %23 = tail call i32 @errcode(i32 noundef 4) #7
  %24 = tail call i32 (ptr, ...) @errmsg(ptr noundef nonnull @.str.13) #7
  tail call void @errfinish(ptr noundef nonnull @.str.4, i32 noundef 497, ptr noundef nonnull @__func__.HandleConcurrentAbort) #7
  unreachable

HandleConcurrentAbort.exit:                       ; preds = %2, %16, %18
  ret i1 %14
}